target datalayout = "e-m:e-p270:32:32-p271:32:32-p272:64:64-i64:64-i128:128-f80:128-n8:16:32:64-S128"
target triple = "x86_64-pc-linux-gnu"

%struct._zval_struct = type { %union._zend_value, %union.anon, %union.anon.2 }
%union._zend_value = type { i64 }
%union.anon = type { i32 }
%union.anon.2 = type { i32 }
%struct._zend_refcounted_h = type { i32, %union.anon.3 }
%union.anon.3 = type { i32 }
%struct.anon.0 = type { i8, i8, %union.anon.1 }
%union.anon.1 = type { i16 }
%struct._zend_refcounted = type { %struct._zend_refcounted_h }
%struct._zend_reference = type { %struct._zend_refcounted_h, %struct._zval_struct, %union.zend_property_info_source_list }
%union.zend_property_info_source_list = type { ptr }
%struct.__va_list_tag = type { i32, i32, ptr, ptr }
%struct._zend_fcall_info = type { i64, %struct._zval_struct, ptr, ptr, ptr, i32, ptr }

; Function Attrs: alwaysinline nounwind uwtable
define internal void @gc_check_possible_root(ptr noundef %0) #2 {
  %2 = alloca ptr, align 8
  %3 = alloca ptr, align 8
  %4 = alloca i32, align 4
  store ptr %0, ptr %2, align 8, !tbaa !45
  %5 = load ptr, ptr %2, align 8, !tbaa !45
  %6 = getelementptr inbounds nuw %struct._zend_refcounted, ptr %5, i32 0, i32 0
  %7 = getelementptr inbounds nuw %struct._zend_refcounted_h, ptr %6, i32 0, i32 1
  %8 = load i32, ptr %7, align 4, !tbaa !44
  %9 = icmp eq i32 %8, 26
  %10 = xor i1 %9, true
  %11 = xor i1 %10, true
  %12 = zext i1 %11 to i32
  %13 = sext i32 %12 to i64
  %14 = call i64 @llvm.expect.i64(i64 %13, i64 1)
  %15 = icmp ne i64 %14, 0
  br i1 %15, label %16, label %34

16:                                               ; preds = %1
  call void @llvm.lifetime.start.p0(i64 8, ptr %3) #21
  %17 = load ptr, ptr %2, align 8, !tbaa !45
  %18 = getelementptr inbounds nuw %struct._zend_reference, ptr %17, i32 0, i32 1
  store ptr %18, ptr %3, align 8, !tbaa !8
  %19 = load ptr, ptr %3, align 8, !tbaa !8
  %20 = getelementptr inbounds nuw %struct._zval_struct, ptr %19, i32 0, i32 1
  %21 = getelementptr inbounds nuw %struct.anon.0, ptr %20, i32 0, i32 1
  %22 = load i8, ptr %21, align 1, !tbaa !44
  %23 = zext i8 %22 to i32
  %24 = and i32 %23, 2
  %25 = icmp ne i32 %24, 0
  br i1 %25, label %27, label %26

26:                                               ; preds = %16
  store i32 1, ptr %4, align 4
  br label %31

27:                                               ; preds = %16
  %28 = load ptr, ptr %3, align 8, !tbaa !8
  %29 = getelementptr inbounds nuw %struct._zval_struct, ptr %28, i32 0, i32 0
  %30 = load ptr, ptr %29, align 8, !tbaa !44
  store ptr %30, ptr %2, align 8, !tbaa !45
  store i32 0, ptr %4, align 4
  br label %31

31:                                               ; preds = %27, %26
  call void @llvm.lifetime.end.p0(i64 8, ptr %3) #21
  %32 = load i32, ptr %4, align 4
  switch i32 %32, label %50 [
    i32 0, label %33
    i32 1, label %49
  ]

33:                                               ; preds = %31
  br label %34

34:                                               ; preds = %33, %1
  %35 = load ptr, ptr %2, align 8, !tbaa !45
  %36 = getelementptr inbounds nuw %struct._zend_refcounted, ptr %35, i32 0, i32 0
  %37 = getelementptr inbounds nuw %struct._zend_refcounted_h, ptr %36, i32 0, i32 1
  %38 = load i32, ptr %37, align 4, !tbaa !44
  %39 = and i32 %38, -1008
  %40 = icmp eq i32 %39, 0
  %41 = xor i1 %40, true
  %42 = xor i1 %41, true
  %43 = zext i1 %42 to i32
  %44 = sext i32 %43 to i64
  %45 = call i64 @llvm.expect.i64(i64 %44, i64 0)
  %46 = icmp ne i64 %45, 0
  br i1 %46, label %47, label %49

47:                                               ; preds = %34
  %48 = load ptr, ptr %2, align 8, !tbaa !45
  call void @gc_possible_root(ptr noundef %48)
  br label %49

49:                                               ; preds = %31, %47, %34
  ret void

50:                                               ; preds = %31
  unreachable
}

; Function Attrs: alwaysinline nounwind uwtable
define internal i32 @zend_gc_delref(ptr noundef %0) #2 {
  %2 = alloca ptr, align 8
  store ptr %0, ptr %2, align 8, !tbaa !143
  %3 = load ptr, ptr %2, align 8, !tbaa !143
  %4 = getelementptr inbounds nuw %struct._zend_refcounted_h, ptr %3, i32 0, i32 0
  %5 = load i32, ptr %4, align 4, !tbaa !145
  %6 = icmp ugt i32 %5, 0
  call void @llvm.assume(i1 %6)
  br label %7

7:                                                ; preds = %1
  br label %8

8:                                                ; preds = %7
  %9 = load ptr, ptr %2, align 8, !tbaa !143
  %10 = getelementptr inbounds nuw %struct._zend_refcounted_h, ptr %9, i32 0, i32 0
  %11 = load i32, ptr %10, align 4, !tbaa !145
  %12 = add i32 %11, -1
  store i32 %12, ptr %10, align 4, !tbaa !145
  ret i32 %12
}

; Function Attrs: alwaysinline nounwind uwtable
define internal void @i_zval_ptr_dtor(ptr noundef %0) #2 {
  %2 = alloca ptr, align 8
  %3 = alloca ptr, align 8
  store ptr %0, ptr %2, align 8, !tbaa !8
  %4 = load ptr, ptr %2, align 8, !tbaa !8
  %5 = getelementptr inbounds nuw %struct._zval_struct, ptr %4, i32 0, i32 1
  %6 = getelementptr inbounds nuw %struct.anon.0, ptr %5, i32 0, i32 1
  %7 = load i8, ptr %6, align 1, !tbaa !44
  %8 = zext i8 %7 to i32
  %9 = icmp ne i32 %8, 0
  br i1 %9, label %10, label %23

10:                                               ; preds = %1
  call void @llvm.lifetime.start.p0(i64 8, ptr %3) #21
  %11 = load ptr, ptr %2, align 8, !tbaa !8
  %12 = getelementptr inbounds nuw %struct._zval_struct, ptr %11, i32 0, i32 0
  %13 = load ptr, ptr %12, align 8, !tbaa !44
  store ptr %13, ptr %3, align 8, !tbaa !45
  %14 = load ptr, ptr %3, align 8, !tbaa !45
  %15 = getelementptr inbounds nuw %struct._zend_refcounted, ptr %14, i32 0, i32 0
  %16 = call i32 @zend_gc_delref(ptr noundef %15)
  %17 = icmp ne i32 %16, 0
  br i1 %17, label %20, label %18

18:                                               ; preds = %10
  %19 = load ptr, ptr %3, align 8, !tbaa !45
  call void @rc_dtor_func(ptr noundef %19)
  br label %22

20:                                               ; preds = %10
  %21 = load ptr, ptr %3, align 8, !tbaa !45
  call void @gc_check_possible_root(ptr noundef %21)
  br label %22

22:                                               ; preds = %20, %18
  call void @llvm.lifetime.end.p0(i64 8, ptr %3) #21
  br label %23

23:                                               ; preds = %22, %1
  ret void
}

; Function Attrs: alwaysinline nounwind uwtable
define internal i32 @zend_gc_addref(ptr noundef %0) #2 {
  %2 = alloca ptr, align 8
  store ptr %0, ptr %2, align 8, !tbaa !143
  br label %3

3:                                                ; preds = %1
  br label %4

4:                                                ; preds = %3
  %5 = load ptr, ptr %2, align 8, !tbaa !143
  %6 = getelementptr inbounds nuw %struct._zend_refcounted_h, ptr %5, i32 0, i32 0
  %7 = load i32, ptr %6, align 4, !tbaa !145
  %8 = add i32 %7, 1
  store i32 %8, ptr %6, align 4, !tbaa !145
  ret i32 %8
}

; Function Attrs: nounwind uwtable
define dso_local void @zend_fcall_info_args_clear(ptr noundef %0, i1 noundef zeroext %1) #0 {
  %3 = alloca ptr, align 8
  %4 = alloca i8, align 1
  %5 = alloca ptr, align 8
  %6 = alloca ptr, align 8
  store ptr %0, ptr %3, align 8, !tbaa !307
  %7 = zext i1 %1 to i8
  store i8 %7, ptr %4, align 1, !tbaa !72
  %8 = load ptr, ptr %3, align 8, !tbaa !307
  %9 = getelementptr inbounds nuw %struct._zend_fcall_info, ptr %8, i32 0, i32 3
  %10 = load ptr, ptr %9, align 8, !tbaa !314
  %11 = icmp ne ptr %10, null
  br i1 %11, label %12, label %40

12:                                               ; preds = %2
  call void @llvm.lifetime.start.p0(i64 8, ptr %5) #21
  %13 = load ptr, ptr %3, align 8, !tbaa !307
  %14 = getelementptr inbounds nuw %struct._zend_fcall_info, ptr %13, i32 0, i32 3
  %15 = load ptr, ptr %14, align 8, !tbaa !314
  store ptr %15, ptr %5, align 8, !tbaa !8
  call void @llvm.lifetime.start.p0(i64 8, ptr %6) #21
  %16 = load ptr, ptr %5, align 8, !tbaa !8
  %17 = load ptr, ptr %3, align 8, !tbaa !307
  %18 = getelementptr inbounds nuw %struct._zend_fcall_info, ptr %17, i32 0, i32 5
  %19 = load i32, ptr %18, align 8, !tbaa !313
  %20 = zext i32 %19 to i64
  %21 = getelementptr inbounds nuw %struct._zval_struct, ptr %16, i64 %20
  store ptr %21, ptr %6, align 8, !tbaa !8
  br label %22

22:                                               ; preds = %26, %12
  %23 = load ptr, ptr %5, align 8, !tbaa !8
  %24 = load ptr, ptr %6, align 8, !tbaa !8
  %25 = icmp ne ptr %23, %24
  br i1 %25, label %26, label %30

26:                                               ; preds = %22
  %27 = load ptr, ptr %5, align 8, !tbaa !8
  call void @i_zval_ptr_dtor(ptr noundef %27)
  %28 = load ptr, ptr %5, align 8, !tbaa !8
  %29 = getelementptr inbounds nuw %struct._zval_struct, ptr %28, i32 1
  store ptr %29, ptr %5, align 8, !tbaa !8
  br label %22

30:                                               ; preds = %22
  %31 = load i8, ptr %4, align 1, !tbaa !72, !range !73, !noundef !74
  %32 = trunc i8 %31 to i1
  br i1 %32, label %33, label %39

33:                                               ; preds = %30
  %34 = load ptr, ptr %3, align 8, !tbaa !307
  %35 = getelementptr inbounds nuw %struct._zend_fcall_info, ptr %34, i32 0, i32 3
  %36 = load ptr, ptr %35, align 8, !tbaa !314
  call void @_efree(ptr noundef %36)
  %37 = load ptr, ptr %3, align 8, !tbaa !307
  %38 = getelementptr inbounds nuw %struct._zend_fcall_info, ptr %37, i32 0, i32 3
  store ptr null, ptr %38, align 8, !tbaa !314
  br label %39

39:                                               ; preds = %33, %30
  call void @llvm.lifetime.end.p0(i64 8, ptr %6) #21
  call void @llvm.lifetime.end.p0(i64 8, ptr %5) #21
  br label %40

40:                                               ; preds = %39, %2
  %41 = load ptr, ptr %3, align 8, !tbaa !307
  %42 = getelementptr inbounds nuw %struct._zend_fcall_info, ptr %41, i32 0, i32 5
  store i32 0, ptr %42, align 8, !tbaa !313
  ret void
}

; Function Attrs: nounwind uwtable
define dso_local void @zend_fcall_info_argv(ptr noundef %0, i32 noundef %1, ptr noundef %2) #0 {
  %4 = alloca ptr, align 8
  %5 = alloca i32, align 4
  %6 = alloca ptr, align 8
  %7 = alloca ptr, align 8
  %8 = alloca i32, align 4
  %9 = alloca ptr, align 8
  %10 = alloca ptr, align 8
  %11 = alloca ptr, align 8
  %12 = alloca i32, align 4
  store ptr %0, ptr %4, align 8, !tbaa !307
  store i32 %1, ptr %5, align 4, !tbaa !4
  store ptr %2, ptr %6, align 8, !tbaa !67
  %13 = load ptr, ptr %4, align 8, !tbaa !307
  %14 = load i32, ptr %5, align 4, !tbaa !4
  %15 = icmp ne i32 %14, 0
  %16 = xor i1 %15, true
  call void @zend_fcall_info_args_clear(ptr noundef %13, i1 noundef zeroext %16)
  %17 = load i32, ptr %5, align 4, !tbaa !4
  %18 = icmp ne i32 %17, 0
  br i1 %18, label %19, label %94

19:                                               ; preds = %3
  call void @llvm.lifetime.start.p0(i64 8, ptr %7) #21
  %20 = load i32, ptr %5, align 4, !tbaa !4
  %21 = load ptr, ptr %4, align 8, !tbaa !307
  %22 = getelementptr inbounds nuw %struct._zend_fcall_info, ptr %21, i32 0, i32 5
  store i32 %20, ptr %22, align 8, !tbaa !313
  %23 = load ptr, ptr %4, align 8, !tbaa !307
  %24 = getelementptr inbounds nuw %struct._zend_fcall_info, ptr %23, i32 0, i32 3
  %25 = load ptr, ptr %24, align 8, !tbaa !314
  %26 = load ptr, ptr %4, align 8, !tbaa !307
  %27 = getelementptr inbounds nuw %struct._zend_fcall_info, ptr %26, i32 0, i32 5
  %28 = load i32, ptr %27, align 8, !tbaa !313
  %29 = zext i32 %28 to i64
  %30 = mul i64 %29, 16
  %31 = call ptr @_erealloc(ptr noundef %25, i64 noundef %30) #29
  %32 = load ptr, ptr %4, align 8, !tbaa !307
  %33 = getelementptr inbounds nuw %struct._zend_fcall_info, ptr %32, i32 0, i32 3
  store ptr %31, ptr %33, align 8, !tbaa !314
  call void @llvm.lifetime.start.p0(i64 4, ptr %8) #21
  store i32 0, ptr %8, align 4, !tbaa !4
  br label %34

34:                                               ; preds = %90, %19
  %35 = load i32, ptr %8, align 4, !tbaa !4
  %36 = load i32, ptr %5, align 4, !tbaa !4
  %37 = icmp ult i32 %35, %36
  br i1 %37, label %39, label %38

38:                                               ; preds = %34
  call void @llvm.lifetime.end.p0(i64 4, ptr %8) #21
  br label %93

39:                                               ; preds = %34
  %40 = load ptr, ptr %6, align 8, !tbaa !67
  %41 = getelementptr inbounds [1 x %struct.__va_list_tag], ptr %40, i64 0, i64 0
  %42 = getelementptr inbounds nuw %struct.__va_list_tag, ptr %41, i32 0, i32 0
  %43 = load i32, ptr %42, align 8
  %44 = icmp ule i32 %43, 40
  br i1 %44, label %45, label %50

45:                                               ; preds = %39
  %46 = getelementptr inbounds nuw %struct.__va_list_tag, ptr %41, i32 0, i32 3
  %47 = load ptr, ptr %46, align 8
  %48 = getelementptr i8, ptr %47, i32 %43
  %49 = add i32 %43, 8
  store i32 %49, ptr %42, align 8
  br label %54

50:                                               ; preds = %39
  %51 = getelementptr inbounds nuw %struct.__va_list_tag, ptr %41, i32 0, i32 2
  %52 = load ptr, ptr %51, align 8
  %53 = getelementptr i8, ptr %52, i32 8
  store ptr %53, ptr %51, align 8
  br label %54

54:                                               ; preds = %50, %45
  %55 = phi ptr [ %48, %45 ], [ %52, %50 ]
  %56 = load ptr, ptr %55, align 8, !tbaa !8
  store ptr %56, ptr %7, align 8, !tbaa !8
  br label %57

57:                                               ; preds = %54
  call void @llvm.lifetime.start.p0(i64 8, ptr %9) #21
  %58 = load ptr, ptr %4, align 8, !tbaa !307
  %59 = getelementptr inbounds nuw %struct._zend_fcall_info, ptr %58, i32 0, i32 3
  %60 = load ptr, ptr %59, align 8, !tbaa !314
  %61 = load i32, ptr %8, align 4, !tbaa !4
  %62 = zext i32 %61 to i64
  %63 = getelementptr inbounds nuw %struct._zval_struct, ptr %60, i64 %62
  store ptr %63, ptr %9, align 8, !tbaa !8
  call void @llvm.lifetime.start.p0(i64 8, ptr %10) #21
  %64 = load ptr, ptr %7, align 8, !tbaa !8
  store ptr %64, ptr %10, align 8, !tbaa !8
  call void @llvm.lifetime.start.p0(i64 8, ptr %11) #21
  %65 = load ptr, ptr %10, align 8, !tbaa !8
  %66 = getelementptr inbounds nuw %struct._zval_struct, ptr %65, i32 0, i32 0
  %67 = load ptr, ptr %66, align 8, !tbaa !44
  store ptr %67, ptr %11, align 8, !tbaa !45
  call void @llvm.lifetime.start.p0(i64 4, ptr %12) #21
  %68 = load ptr, ptr %10, align 8, !tbaa !8
  %69 = getelementptr inbounds nuw %struct._zval_struct, ptr %68, i32 0, i32 1
  %70 = load i32, ptr %69, align 8, !tbaa !44
  store i32 %70, ptr %12, align 4, !tbaa !4
  br label %71

71:                                               ; preds = %57
  %72 = load ptr, ptr %11, align 8, !tbaa !45
  %73 = load ptr, ptr %9, align 8, !tbaa !8
  %74 = getelementptr inbounds nuw %struct._zval_struct, ptr %73, i32 0, i32 0
  store ptr %72, ptr %74, align 8, !tbaa !44
  %75 = load i32, ptr %12, align 4, !tbaa !4
  %76 = load ptr, ptr %9, align 8, !tbaa !8
  %77 = getelementptr inbounds nuw %struct._zval_struct, ptr %76, i32 0, i32 1
  store i32 %75, ptr %77, align 8, !tbaa !44
  br label %78

78:                                               ; preds = %71
  br label %79

79:                                               ; preds = %78
  %80 = load i32, ptr %12, align 4, !tbaa !4
  %81 = and i32 %80, 65280
  %82 = icmp ne i32 %81, 0
  br i1 %82, label %83, label %87

83:                                               ; preds = %79
  %84 = load ptr, ptr %11, align 8, !tbaa !45
  %85 = getelementptr inbounds nuw %struct._zend_refcounted, ptr %84, i32 0, i32 0
  %86 = call i32 @zend_gc_addref(ptr noundef %85)
  br label %87

87:                                               ; preds = %83, %79
  call void @llvm.lifetime.end.p0(i64 4, ptr %12) #21
  call void @llvm.lifetime.end.p0(i64 8, ptr %11) #21
  call void @llvm.lifetime.end.p0(i64 8, ptr %10) #21
  call void @llvm.lifetime.end.p0(i64 8, ptr %9) #21
  br label %88

88:                                               ; preds = %87
  br label %89

89:                                               ; preds = %88
  br label %90

90:                                               ; preds = %89
  %91 = load i32, ptr %8, align 4, !tbaa !4
  %92 = add i32 %91, 1
  store i32 %92, ptr %8, align 4, !tbaa !4
  br label %34

93:                                               ; preds = %38
  call void @llvm.lifetime.end.p0(i64 8, ptr %7) #21
  br label %94

94:                                               ; preds = %93, %3
  ret void
}