; Function Attrs: nounwind uwtable
define dso_local void @zend_fcall_info_argv(ptr noundef captures(none) %0, i32 noundef %1, ptr noundef captures(none) %2) local_unnamed_addr #2 {
  %.not = icmp eq i32 %1, 0
  %4 = getelementptr inbounds nuw i8, ptr %0, i64 32
  %5 = load ptr, ptr %4, align 8, !tbaa !292
  %.not.i = icmp eq ptr %5, null
  %6 = getelementptr inbounds nuw i8, ptr %0, i64 48
  br i1 %.not.i, label %zend_fcall_info_args_clear.exit, label %7

7:                                                ; preds = %3
  %8 = load i32, ptr %6, align 8, !tbaa !117
  %9 = zext i32 %8 to i64
  %10 = getelementptr inbounds nuw %struct._zval_struct, ptr %5, i64 %9
  %.not1216.i = icmp eq i32 %8, 0
  br i1 %.not1216.i, label %._crit_edge.i, label %.lr.ph.i

.lr.ph.i:                                         ; preds = %7, %i_zval_ptr_dtor.exit.i
  %.017.i = phi ptr [ %34, %i_zval_ptr_dtor.exit.i ], [ %5, %7 ]
  %11 = getelementptr inbounds nuw i8, ptr %.017.i, i64 9
  %12 = load i8, ptr %11, align 1, !tbaa !42
  %.not.i.i = icmp eq i8 %12, 0
  br i1 %.not.i.i, label %i_zval_ptr_dtor.exit.i, label %13

13:                                               ; preds = %.lr.ph.i
  %14 = load ptr, ptr %.017.i, align 8, !tbaa !42
  %15 = load i32, ptr %14, align 4, !tbaa !43
  %16 = icmp ne i32 %15, 0
  tail call void @llvm.assume(i1 %16)
  %17 = add i32 %15, -1
  store i32 %17, ptr %14, align 4, !tbaa !43
  %.not5.i.i = icmp eq i32 %17, 0
  br i1 %.not5.i.i, label %18, label %19

18:                                               ; preds = %13
  tail call void @rc_dtor_func(ptr noundef nonnull %14) #34
  br label %i_zval_ptr_dtor.exit.i

19:                                               ; preds = %13
  %20 = getelementptr inbounds nuw i8, ptr %14, i64 4
  %21 = load i32, ptr %20, align 4, !tbaa !42
  %22 = icmp eq i32 %21, 26
  br i1 %22, label %23, label %29, !prof !45

23:                                               ; preds = %19
  %24 = getelementptr inbounds nuw i8, ptr %14, i64 17
  %25 = load i8, ptr %24, align 1, !tbaa !42
  %26 = and i8 %25, 2
  %.not.i13.i = icmp eq i8 %26, 0
  br i1 %.not.i13.i, label %i_zval_ptr_dtor.exit.i, label %.thread.i

.thread.i:                                        ; preds = %23
  %27 = getelementptr inbounds nuw i8, ptr %14, i64 8
  %28 = load ptr, ptr %27, align 8, !tbaa !42
  %.phi.trans.insert.i = getelementptr inbounds nuw i8, ptr %28, i64 4
  %.pre.i = load i32, ptr %.phi.trans.insert.i, align 4, !tbaa !42
  br label %29

29:                                               ; preds = %.thread.i, %19
  %30 = phi i32 [ %21, %19 ], [ %.pre.i, %.thread.i ]
  %.06.i.i = phi ptr [ %14, %19 ], [ %28, %.thread.i ]
  %31 = and i32 %30, -1008
  %32 = icmp eq i32 %31, 0
  br i1 %32, label %33, label %i_zval_ptr_dtor.exit.i, !prof !46

33:                                               ; preds = %29
  tail call void @gc_possible_root(ptr noundef nonnull %.06.i.i) #34
  br label %i_zval_ptr_dtor.exit.i

i_zval_ptr_dtor.exit.i:                           ; preds = %33, %29, %23, %18, %.lr.ph.i
  %34 = getelementptr inbounds nuw i8, ptr %.017.i, i64 16
  %.not12.i = icmp eq ptr %34, %10
  br i1 %.not12.i, label %._crit_edge.i, label %.lr.ph.i

._crit_edge.i:                                    ; preds = %i_zval_ptr_dtor.exit.i, %7
  %35 = load ptr, ptr %4, align 8, !tbaa !292
  br i1 %.not, label %zend_fcall_info_args_clear.exit.thread, label %.lr.ph

zend_fcall_info_args_clear.exit.thread:           ; preds = %._crit_edge.i
  tail call void @_efree(ptr noundef %35) #34
  store ptr null, ptr %4, align 8, !tbaa !292
  store i32 0, ptr %6, align 8, !tbaa !117
  br label %.loopexit

zend_fcall_info_args_clear.exit:                  ; preds = %3
  store i32 0, ptr %6, align 8, !tbaa !117
  br i1 %.not, label %.loopexit, label %.lr.ph

.lr.ph:                                           ; preds = %._crit_edge.i, %zend_fcall_info_args_clear.exit
  %36 = phi ptr [ null, %zend_fcall_info_args_clear.exit ], [ %35, %._crit_edge.i ]
  store i32 %1, ptr %6, align 8, !tbaa !117
  %37 = zext i32 %1 to i64
  %38 = shl nuw nsw i64 %37, 4
  %39 = tail call ptr @_erealloc(ptr noundef %36, i64 noundef %38) #38
  store ptr %39, ptr %4, align 8, !tbaa !292
  %40 = getelementptr inbounds nuw i8, ptr %2, i64 8
  %41 = getelementptr inbounds nuw i8, ptr %2, i64 16
  br label %42

42:                                               ; preds = %.lr.ph, %66
  %indvars.iv = phi i64 [ 0, %.lr.ph ], [ %indvars.iv.next, %66 ]
  %43 = load i32, ptr %2, align 8
  %44 = icmp ult i32 %43, 41
  br i1 %44, label %45, label %50

45:                                               ; preds = %42
  %46 = load ptr, ptr %41, align 8
  %47 = zext nneg i32 %43 to i64
  %48 = getelementptr i8, ptr %46, i64 %47
  %49 = add nuw nsw i32 %43, 8
  store i32 %49, ptr %2, align 8
  br label %53

50:                                               ; preds = %42
  %51 = load ptr, ptr %40, align 8
  %52 = getelementptr i8, ptr %51, i64 8
  store ptr %52, ptr %40, align 8
  br label %53

53:                                               ; preds = %50, %45
  %54 = phi ptr [ %48, %45 ], [ %51, %50 ]
  %55 = load ptr, ptr %54, align 8, !tbaa !77
  %56 = load ptr, ptr %4, align 8, !tbaa !292
  %57 = getelementptr inbounds nuw %struct._zval_struct, ptr %56, i64 %indvars.iv
  %58 = load ptr, ptr %55, align 8, !tbaa !42
  %59 = getelementptr inbounds nuw i8, ptr %55, i64 8
  %60 = load i32, ptr %59, align 8, !tbaa !42
  store ptr %58, ptr %57, align 8, !tbaa !42
  %61 = getelementptr inbounds nuw i8, ptr %57, i64 8
  store i32 %60, ptr %61, align 8, !tbaa !42
  %62 = and i32 %60, 65280
  %.not24 = icmp eq i32 %62, 0
  br i1 %.not24, label %66, label %63

63:                                               ; preds = %53
  %64 = load i32, ptr %58, align 4, !tbaa !43
  %65 = add i32 %64, 1
  store i32 %65, ptr %58, align 4, !tbaa !43
  br label %66

66:                                               ; preds = %63, %53
  %indvars.iv.next = add nuw nsw i64 %indvars.iv, 1
  %exitcond.not = icmp eq i64 %indvars.iv.next, %37
  br i1 %exitcond.not, label %.loopexit, label %42

.loopexit:                                        ; preds = %66, %zend_fcall_info_args_clear.exit.thread, %zend_fcall_info_args_clear.exit
  ret void
}